target datalayout = "e-m:e-p270:32:32-p271:32:32-p272:64:64-i64:64-f80:128-n8:16:32:64-S128"
target triple = "x86_64-pc-linux-gnu"

@.str = private unnamed_addr constant [4 x i8] c"%d,\00", align 1
@.str.1 = private unnamed_addr constant [3 x i8] c"No\00", align 1
@.str.2 = private unnamed_addr constant [3 x i8] c"%d\00", align 1

; Function Attrs: noinline nounwind uwtable
define dso_local void @main() #0 {
  %1 = alloca i32, align 4
  %2 = alloca i32, align 4
  %3 = alloca [1000 x i32], align 16
  %4 = alloca i32, align 4
  %5 = alloca i32, align 4
  %6 = alloca i32, align 4
  %7 = alloca i32, align 4
  %8 = alloca [1000 x i32], align 16
  store i32 0, i32* %4, align 4
  store i32 0, i32* %5, align 4
  store i32 0, i32* %1, align 4
  br label %9

9:                                                ; preds = %17, %0
  %10 = load i32, i32* %1, align 4
  %11 = sext i32 %10 to i64
  %12 = getelementptr inbounds [1000 x i32], [1000 x i32]* %3, i64 0, i64 %11
  %13 = call i32 (i8*, ...) @__isoc99_scanf(i8* getelementptr inbounds ([4 x i8], [4 x i8]* @.str, i64 0, i64 0), i32* %12)
  %14 = icmp eq i32 %13, -1
  br i1 %14, label %15, label %16

15:                                               ; preds = %9
  br label %20

16:                                               ; preds = %9
  br label %17

17:                                               ; preds = %16
  %18 = load i32, i32* %1, align 4
  %19 = add nsw i32 %18, 1
  store i32 %19, i32* %1, align 4
  br label %9

20:                                               ; preds = %15
  %21 = getelementptr inbounds [1000 x i32], [1000 x i32]* %3, i64 0, i64 0
  %22 = load i32, i32* %21, align 16
  store i32 %22, i32* %6, align 4
  store i32 0, i32* %2, align 4
  br label %23

23:                                               ; preds = %40, %20
  %24 = load i32, i32* %2, align 4
  %25 = load i32, i32* %1, align 4
  %26 = icmp slt i32 %24, %25
  br i1 %26, label %27, label %43

27:                                               ; preds = %23
  %28 = load i32, i32* %2, align 4
  %29 = sext i32 %28 to i64
  %30 = getelementptr inbounds [1000 x i32], [1000 x i32]* %3, i64 0, i64 %29
  %31 = load i32, i32* %30, align 4
  %32 = load i32, i32* %6, align 4
  %33 = icmp sgt i32 %31, %32
  br i1 %33, label %34, label %39

34:                                               ; preds = %27
  %35 = load i32, i32* %2, align 4
  %36 = sext i32 %35 to i64
  %37 = getelementptr inbounds [1000 x i32], [1000 x i32]* %3, i64 0, i64 %36
  %38 = load i32, i32* %37, align 4
  store i32 %38, i32* %6, align 4
  br label %39

39:                                               ; preds = %34, %27
  br label %40

40:                                               ; preds = %39
  %41 = load i32, i32* %2, align 4
  %42 = add nsw i32 %41, 1
  store i32 %42, i32* %2, align 4
  br label %23

43:                                               ; preds = %23
  store i32 0, i32* %2, align 4
  br label %44

44:                                               ; preds = %59, %43
  %45 = load i32, i32* %2, align 4
  %46 = load i32, i32* %1, align 4
  %47 = icmp slt i32 %45, %46
  br i1 %47, label %48, label %62

48:                                               ; preds = %44
  %49 = load i32, i32* %2, align 4
  %50 = sext i32 %49 to i64
  %51 = getelementptr inbounds [1000 x i32], [1000 x i32]* %3, i64 0, i64 %50
  %52 = load i32, i32* %51, align 4
  %53 = load i32, i32* %6, align 4
  %54 = icmp eq i32 %52, %53
  br i1 %54, label %55, label %58

55:                                               ; preds = %48
  %56 = load i32, i32* %4, align 4
  %57 = add nsw i32 %56, 1
  store i32 %57, i32* %4, align 4
  br label %58

58:                                               ; preds = %55, %48
  br label %59

59:                                               ; preds = %58
  %60 = load i32, i32* %2, align 4
  %61 = add nsw i32 %60, 1
  store i32 %61, i32* %2, align 4
  br label %44

62:                                               ; preds = %44
  %63 = load i32, i32* %4, align 4
  %64 = load i32, i32* %1, align 4
  %65 = icmp eq i32 %63, %64
  br i1 %65, label %66, label %68

66:                                               ; preds = %62
  %67 = call i32 (i8*, ...) @printf(i8* getelementptr inbounds ([3 x i8], [3 x i8]* @.str.1, i64 0, i64 0))
  br label %120

68:                                               ; preds = %62
  store i32 0, i32* %2, align 4
  br label %69

69:                                               ; preds = %91, %68
  %70 = load i32, i32* %2, align 4
  %71 = load i32, i32* %1, align 4
  %72 = icmp slt i32 %70, %71
  br i1 %72, label %73, label %94

73:                                               ; preds = %69
  %74 = load i32, i32* %2, align 4
  %75 = sext i32 %74 to i64
  %76 = getelementptr inbounds [1000 x i32], [1000 x i32]* %3, i64 0, i64 %75
  %77 = load i32, i32* %76, align 4
  %78 = load i32, i32* %6, align 4
  %79 = icmp ne i32 %77, %78
  br i1 %79, label %80, label %90

80:                                               ; preds = %73
  %81 = load i32, i32* %2, align 4
  %82 = sext i32 %81 to i64
  %83 = getelementptr inbounds [1000 x i32], [1000 x i32]* %3, i64 0, i64 %82
  %84 = load i32, i32* %83, align 4
  %85 = load i32, i32* %5, align 4
  %86 = sext i32 %85 to i64
  %87 = getelementptr inbounds [1000 x i32], [1000 x i32]* %8, i64 0, i64 %86
  store i32 %84, i32* %87, align 4
  %88 = load i32, i32* %5, align 4
  %89 = add nsw i32 %88, 1
  store i32 %89, i32* %5, align 4
  br label %90

90:                                               ; preds = %80, %73
  br label %91

91:                                               ; preds = %90
  %92 = load i32, i32* %2, align 4
  %93 = add nsw i32 %92, 1
  store i32 %93, i32* %2, align 4
  br label %69

94:                                               ; preds = %69
  %95 = getelementptr inbounds [1000 x i32], [1000 x i32]* %8, i64 0, i64 0
  %96 = load i32, i32* %95, align 16
  store i32 %96, i32* %7, align 4
  store i32 0, i32* %2, align 4
  br label %97

97:                                               ; preds = %114, %94
  %98 = load i32, i32* %2, align 4
  %99 = load i32, i32* %5, align 4
  %100 = icmp sle i32 %98, %99
  br i1 %100, label %101, label %117

101:                                              ; preds = %97
  %102 = load i32, i32* %2, align 4
  %103 = sext i32 %102 to i64
  %104 = getelementptr inbounds [1000 x i32], [1000 x i32]* %8, i64 0, i64 %103
  %105 = load i32, i32* %104, align 4
  %106 = load i32, i32* %7, align 4
  %107 = icmp sgt i32 %105, %106
  br i1 %107, label %108, label %113

108:                                              ; preds = %101
  %109 = load i32, i32* %2, align 4
  %110 = sext i32 %109 to i64
  %111 = getelementptr inbounds [1000 x i32], [1000 x i32]* %8, i64 0, i64 %110
  %112 = load i32, i32* %111, align 4
  store i32 %112, i32* %7, align 4
  br label %113

113:                                              ; preds = %108, %101
  br label %114

114:                                              ; preds = %113
  %115 = load i32, i32* %2, align 4
  %116 = add nsw i32 %115, 1
  store i32 %116, i32* %2, align 4
  br label %97

117:                                              ; preds = %97
  %118 = load i32, i32* %7, align 4
  %119 = call i32 (i8*, ...) @printf(i8* getelementptr inbounds ([3 x i8], [3 x i8]* @.str.2, i64 0, i64 0), i32 %118)
  br label %120

120:                                              ; preds = %117, %66
  ret void
}